target datalayout = "e-m:e-p270:32:32-p271:32:32-p272:64:64-i64:64-i128:128-f80:128-n8:16:32:64-S128"
target triple = "x86_64-pc-linux-gnu"

@lib_ctx = internal global ptr null, align 8
@.str.29 = private unnamed_addr constant [30 x i8] c"../openssl/test/ml_dsa_test.c\00", align 1
@.str.41 = private unnamed_addr constant [10 x i8] c"?fips=yes\00", align 1
@.str.80 = private unnamed_addr constant [58 x i8] c"key = ossl_ml_dsa_key_new(NULL, NULL, EVP_PKEY_ML_DSA_44)\00", align 1
@.str.81 = private unnamed_addr constant [50 x i8] c"key = ossl_ml_dsa_key_new(lib_ctx, \22\22, NID_undef)\00", align 1
@.str.82 = private unnamed_addr constant [1 x i8] zeroinitializer, align 1
@.str.83 = private unnamed_addr constant [62 x i8] c"key1 = ossl_ml_dsa_key_dup(NULL, OSSL_KEYMGMT_SELECT_KEYPAIR)\00", align 1
@.str.84 = private unnamed_addr constant [68 x i8] c"key = ossl_ml_dsa_key_new(lib_ctx, \22?fips=yes\22, EVP_PKEY_ML_DSA_44)\00", align 1
@.str.85 = private unnamed_addr constant [61 x i8] c"key1 = ossl_ml_dsa_key_dup(key, OSSL_KEYMGMT_SELECT_KEYPAIR)\00", align 1
@.str.86 = private unnamed_addr constant [32 x i8] c"ossl_ml_dsa_key_pub_alloc(key1)\00", align 1
@.str.87 = private unnamed_addr constant [32 x i8] c"ossl_ml_dsa_key_priv_alloc(key)\00", align 1

; Function Attrs: nounwind uwtable
define internal i32 @ml_dsa_key_internal_test() #0 {
  %1 = alloca i32, align 4
  %2 = alloca ptr, align 8
  %3 = alloca ptr, align 8
  call void @llvm.lifetime.start.p0(i64 4, ptr %1) #4
  store i32 0, ptr %1, align 4, !tbaa !9
  call void @llvm.lifetime.start.p0(i64 8, ptr %2) #4
  store ptr null, ptr %2, align 8, !tbaa !60
  call void @llvm.lifetime.start.p0(i64 8, ptr %3) #4
  store ptr null, ptr %3, align 8, !tbaa !60
  call void @ossl_ml_dsa_key_free(ptr noundef null)
  %4 = call ptr @ossl_ml_dsa_key_new(ptr noundef null, ptr noundef null, i32 noundef 1457)
  store ptr %4, ptr %2, align 8, !tbaa !60
  %5 = call i32 @test_ptr_null(ptr noundef @.str.29, i32 noundef 225, ptr noundef @.str.80, ptr noundef %4)
  %6 = icmp ne i32 %5, 0
  br i1 %6, label %7, label %54

7:                                                ; preds = %0
  %8 = load ptr, ptr @lib_ctx, align 8, !tbaa !43
  %9 = call ptr @ossl_ml_dsa_key_new(ptr noundef %8, ptr noundef @.str.82, i32 noundef 0)
  store ptr %9, ptr %2, align 8, !tbaa !60
  %10 = call i32 @test_ptr_null(ptr noundef @.str.29, i32 noundef 227, ptr noundef @.str.81, ptr noundef %9)
  %11 = icmp ne i32 %10, 0
  br i1 %11, label %12, label %54

12:                                               ; preds = %7
  %13 = call ptr @ossl_ml_dsa_key_dup(ptr noundef null, i32 noundef 3)
  store ptr %13, ptr %3, align 8, !tbaa !60
  %14 = call i32 @test_ptr_null(ptr noundef @.str.29, i32 noundef 229, ptr noundef @.str.83, ptr noundef %13)
  %15 = icmp ne i32 %14, 0
  br i1 %15, label %16, label %54

16:                                               ; preds = %12
  %17 = load ptr, ptr @lib_ctx, align 8, !tbaa !43
  %18 = call ptr @ossl_ml_dsa_key_new(ptr noundef %17, ptr noundef @.str.41, i32 noundef 1457)
  store ptr %18, ptr %2, align 8, !tbaa !60
  %19 = call i32 @test_ptr(ptr noundef @.str.29, i32 noundef 231, ptr noundef @.str.84, ptr noundef %18)
  %20 = icmp ne i32 %19, 0
  br i1 %20, label %21, label %54

21:                                               ; preds = %16
  %22 = load ptr, ptr %2, align 8, !tbaa !60
  %23 = call ptr @ossl_ml_dsa_key_dup(ptr noundef %22, i32 noundef 3)
  store ptr %23, ptr %3, align 8, !tbaa !60
  %24 = call i32 @test_ptr(ptr noundef @.str.29, i32 noundef 232, ptr noundef @.str.85, ptr noundef %23)
  %25 = icmp ne i32 %24, 0
  br i1 %25, label %26, label %54

26:                                               ; preds = %21
  %27 = load ptr, ptr %3, align 8, !tbaa !60
  %28 = call i32 @ossl_ml_dsa_key_pub_alloc(ptr noundef %27)
  %29 = icmp ne i32 %28, 0
  %30 = zext i1 %29 to i32
  %31 = call i32 @test_true(ptr noundef @.str.29, i32 noundef 233, ptr noundef @.str.86, i32 noundef %30)
  %32 = icmp ne i32 %31, 0
  br i1 %32, label %33, label %54

33:                                               ; preds = %26
  %34 = load ptr, ptr %3, align 8, !tbaa !60
  %35 = call i32 @ossl_ml_dsa_key_pub_alloc(ptr noundef %34)
  %36 = icmp ne i32 %35, 0
  %37 = zext i1 %36 to i32
  %38 = call i32 @test_false(ptr noundef @.str.29, i32 noundef 234, ptr noundef @.str.86, i32 noundef %37)
  %39 = icmp ne i32 %38, 0
  br i1 %39, label %40, label %54

40:                                               ; preds = %33
  %41 = load ptr, ptr %2, align 8, !tbaa !60
  %42 = call i32 @ossl_ml_dsa_key_priv_alloc(ptr noundef %41)
  %43 = icmp ne i32 %42, 0
  %44 = zext i1 %43 to i32
  %45 = call i32 @test_true(ptr noundef @.str.29, i32 noundef 235, ptr noundef @.str.87, i32 noundef %44)
  %46 = icmp ne i32 %45, 0
  br i1 %46, label %47, label %54

47:                                               ; preds = %40
  %48 = load ptr, ptr %2, align 8, !tbaa !60
  %49 = call i32 @ossl_ml_dsa_key_priv_alloc(ptr noundef %48)
  %50 = icmp ne i32 %49, 0
  %51 = zext i1 %50 to i32
  %52 = call i32 @test_false(ptr noundef @.str.29, i32 noundef 236, ptr noundef @.str.87, i32 noundef %51)
  %53 = icmp ne i32 %52, 0
  br i1 %53, label %55, label %54

54:                                               ; preds = %47, %40, %33, %26, %21, %16, %12, %7, %0
  br label %56

55:                                               ; preds = %47
  store i32 1, ptr %1, align 4, !tbaa !9
  br label %56

56:                                               ; preds = %55, %54
  %57 = load ptr, ptr %3, align 8, !tbaa !60
  call void @ossl_ml_dsa_key_free(ptr noundef %57)
  %58 = load ptr, ptr %2, align 8, !tbaa !60
  call void @ossl_ml_dsa_key_free(ptr noundef %58)
  %59 = load i32, ptr %1, align 4, !tbaa !9
  call void @llvm.lifetime.end.p0(i64 8, ptr %3) #4
  call void @llvm.lifetime.end.p0(i64 8, ptr %2) #4
  call void @llvm.lifetime.end.p0(i64 4, ptr %1) #4
  ret i32 %59
}