; Function Attrs: nounwind uwtable
define internal range(i32 0, 2) i32 @ml_dsa_key_internal_test() #1 {
  tail call void @ossl_ml_dsa_key_free(ptr noundef null) #5
  %1 = tail call ptr @ossl_ml_dsa_key_new(ptr noundef null, ptr noundef null, i32 noundef 1457) #5
  %2 = tail call i32 @test_ptr_null(ptr noundef nonnull @.str.29, i32 noundef 225, ptr noundef nonnull @.str.80, ptr noundef %1) #5
  %.not = icmp eq i32 %2, 0
  br i1 %.not, label %37, label %3

3:                                                ; preds = %0
  %4 = load ptr, ptr @lib_ctx, align 8, !tbaa !27
  %5 = tail call ptr @ossl_ml_dsa_key_new(ptr noundef %4, ptr noundef nonnull @.str.82, i32 noundef 0) #5
  %6 = tail call i32 @test_ptr_null(ptr noundef nonnull @.str.29, i32 noundef 227, ptr noundef nonnull @.str.81, ptr noundef %5) #5
  %.not9 = icmp eq i32 %6, 0
  br i1 %.not9, label %37, label %7

7:                                                ; preds = %3
  %8 = tail call ptr @ossl_ml_dsa_key_dup(ptr noundef null, i32 noundef 3) #5
  %9 = tail call i32 @test_ptr_null(ptr noundef nonnull @.str.29, i32 noundef 229, ptr noundef nonnull @.str.83, ptr noundef %8) #5
  %.not10 = icmp eq i32 %9, 0
  br i1 %.not10, label %37, label %10

10:                                               ; preds = %7
  %11 = load ptr, ptr @lib_ctx, align 8, !tbaa !27
  %12 = tail call ptr @ossl_ml_dsa_key_new(ptr noundef %11, ptr noundef nonnull @.str.41, i32 noundef 1457) #5
  %13 = tail call i32 @test_ptr(ptr noundef nonnull @.str.29, i32 noundef 231, ptr noundef nonnull @.str.84, ptr noundef %12) #5
  %.not11 = icmp eq i32 %13, 0
  br i1 %.not11, label %37, label %14

14:                                               ; preds = %10
  %15 = tail call ptr @ossl_ml_dsa_key_dup(ptr noundef %12, i32 noundef 3) #5
  %16 = tail call i32 @test_ptr(ptr noundef nonnull @.str.29, i32 noundef 232, ptr noundef nonnull @.str.85, ptr noundef %15) #5
  %.not12 = icmp eq i32 %16, 0
  br i1 %.not12, label %37, label %17

17:                                               ; preds = %14
  %18 = tail call i32 @ossl_ml_dsa_key_pub_alloc(ptr noundef %15) #5
  %19 = icmp ne i32 %18, 0
  %20 = zext i1 %19 to i32
  %21 = tail call i32 @test_true(ptr noundef nonnull @.str.29, i32 noundef 233, ptr noundef nonnull @.str.86, i32 noundef %20) #5
  %.not13 = icmp eq i32 %21, 0
  br i1 %.not13, label %37, label %22

22:                                               ; preds = %17
  %23 = tail call i32 @ossl_ml_dsa_key_pub_alloc(ptr noundef %15) #5
  %24 = icmp ne i32 %23, 0
  %25 = zext i1 %24 to i32
  %26 = tail call i32 @test_false(ptr noundef nonnull @.str.29, i32 noundef 234, ptr noundef nonnull @.str.86, i32 noundef %25) #5
  %.not14 = icmp eq i32 %26, 0
  br i1 %.not14, label %37, label %27

27:                                               ; preds = %22
  %28 = tail call i32 @ossl_ml_dsa_key_priv_alloc(ptr noundef %12) #5
  %29 = icmp ne i32 %28, 0
  %30 = zext i1 %29 to i32
  %31 = tail call i32 @test_true(ptr noundef nonnull @.str.29, i32 noundef 235, ptr noundef nonnull @.str.87, i32 noundef %30) #5
  %.not15 = icmp eq i32 %31, 0
  br i1 %.not15, label %37, label %32

32:                                               ; preds = %27
  %33 = tail call i32 @ossl_ml_dsa_key_priv_alloc(ptr noundef %12) #5
  %34 = icmp ne i32 %33, 0
  %35 = zext i1 %34 to i32
  %36 = tail call i32 @test_false(ptr noundef nonnull @.str.29, i32 noundef 236, ptr noundef nonnull @.str.87, i32 noundef %35) #5
  %.not16 = icmp ne i32 %36, 0
  %spec.select = zext i1 %.not16 to i32
  br label %37

37:                                               ; preds = %32, %0, %3, %7, %10, %14, %17, %22, %27
  %.08 = phi i32 [ 0, %27 ], [ 0, %22 ], [ 0, %17 ], [ 0, %14 ], [ 0, %10 ], [ 0, %7 ], [ 0, %3 ], [ 0, %0 ], [ %spec.select, %32 ]
  %.07 = phi ptr [ %12, %27 ], [ %12, %22 ], [ %12, %17 ], [ %12, %14 ], [ %12, %10 ], [ %5, %7 ], [ %5, %3 ], [ %1, %0 ], [ %12, %32 ]
  %.0 = phi ptr [ %15, %27 ], [ %15, %22 ], [ %15, %17 ], [ %15, %14 ], [ %8, %10 ], [ %8, %7 ], [ null, %3 ], [ null, %0 ], [ %15, %32 ]
  tail call void @ossl_ml_dsa_key_free(ptr noundef %.0) #5
  tail call void @ossl_ml_dsa_key_free(ptr noundef %.07) #5
  ret i32 %.08
}